(dp0
S'artistbio'
p1
(lp2
(I1
S'Knorkator'
p3
tp4
asS'artistphoto'
p5
(lp6
(I4
S'Avril Lavigne'
p7
tp8
asS'cover'
p9
(lp10
(I2
S'Rammstein + Mutter'
p11
tp12
asS'lyrics'
p13
(lp14
(I3
S'Farin Urlaub + Lieber Staat'
p15
tp16
as.